target datalayout = "e-m:e-p270:32:32-p271:32:32-p272:64:64-i64:64-i128:128-f80:128-n8:16:32:64-S128"
target triple = "x86_64-pc-linux-gnu"

@hf_mpeg_descr_ac3_component_type_flag = internal global i32 0, align 4
@hf_mpeg_descr_ac3_bsid_flag = internal global i32 0, align 4
@hf_mpeg_descr_ac3_mainid_flag = internal global i32 0, align 4
@hf_mpeg_descr_ac3_asvc_flag = internal global i32 0, align 4
@hf_mpeg_descr_ac3_reserved = internal global i32 0, align 4
@hf_mpeg_descr_ac3_component_type_reserved_flag = internal global i32 0, align 4
@hf_mpeg_descr_ac3_component_type_full_service_flag = internal global i32 0, align 4
@hf_mpeg_descr_ac3_component_type_service_type_flags = internal global i32 0, align 4
@hf_mpeg_descr_ac3_component_type_number_of_channels_flags = internal global i32 0, align 4
@hf_mpeg_descr_ac3_bsid = internal global i32 0, align 4
@hf_mpeg_descr_ac3_mainid = internal global i32 0, align 4
@hf_mpeg_descr_ac3_asvc = internal global i32 0, align 4
@hf_mpeg_descr_ac3_additional_info = internal global i32 0, align 4
@ett_mpeg_descriptor_ac3_component_type = internal global i32 0, align 4
@.str.764 = private unnamed_addr constant [22 x i8] c"Component Type 0x%02x\00", align 1

; Function Attrs: null_pointer_is_valid sspstrong uwtable
define internal void @proto_mpeg_descriptor_dissect_ac3(ptr noundef %0, i32 noundef %1, i32 noundef %2, ptr noundef %3) #1 {
  %5 = alloca ptr, align 8
  %6 = alloca i32, align 4
  %7 = alloca i32, align 4
  %8 = alloca ptr, align 8
  %9 = alloca i32, align 4
  %10 = alloca i8, align 1
  %11 = alloca i8, align 1
  %12 = alloca ptr, align 8
  store ptr %0, ptr %5, align 8
  store i32 %1, ptr %6, align 4
  store i32 %2, ptr %7, align 4
  store ptr %3, ptr %8, align 8
  call void @llvm.lifetime.start.p0(i64 4, ptr %9) #4
  %13 = load i32, ptr %6, align 4
  %14 = load i32, ptr %7, align 4
  %15 = add i32 %13, %14
  store i32 %15, ptr %9, align 4
  call void @llvm.lifetime.start.p0(i64 1, ptr %10) #4
  call void @llvm.lifetime.start.p0(i64 1, ptr %11) #4
  call void @llvm.lifetime.start.p0(i64 8, ptr %12) #4
  %16 = load ptr, ptr %5, align 8
  %17 = load i32, ptr %6, align 4
  %18 = call zeroext i8 @tvb_get_uint8(ptr noundef %16, i32 noundef %17)
  store i8 %18, ptr %10, align 1
  %19 = load ptr, ptr %8, align 8
  %20 = load i32, ptr @hf_mpeg_descr_ac3_component_type_flag, align 4
  %21 = load ptr, ptr %5, align 8
  %22 = load i32, ptr %6, align 4
  %23 = call ptr @proto_tree_add_item(ptr noundef %19, i32 noundef %20, ptr noundef %21, i32 noundef %22, i32 noundef 1, i32 noundef 0)
  %24 = load ptr, ptr %8, align 8
  %25 = load i32, ptr @hf_mpeg_descr_ac3_bsid_flag, align 4
  %26 = load ptr, ptr %5, align 8
  %27 = load i32, ptr %6, align 4
  %28 = call ptr @proto_tree_add_item(ptr noundef %24, i32 noundef %25, ptr noundef %26, i32 noundef %27, i32 noundef 1, i32 noundef 0)
  %29 = load ptr, ptr %8, align 8
  %30 = load i32, ptr @hf_mpeg_descr_ac3_mainid_flag, align 4
  %31 = load ptr, ptr %5, align 8
  %32 = load i32, ptr %6, align 4
  %33 = call ptr @proto_tree_add_item(ptr noundef %29, i32 noundef %30, ptr noundef %31, i32 noundef %32, i32 noundef 1, i32 noundef 0)
  %34 = load ptr, ptr %8, align 8
  %35 = load i32, ptr @hf_mpeg_descr_ac3_asvc_flag, align 4
  %36 = load ptr, ptr %5, align 8
  %37 = load i32, ptr %6, align 4
  %38 = call ptr @proto_tree_add_item(ptr noundef %34, i32 noundef %35, ptr noundef %36, i32 noundef %37, i32 noundef 1, i32 noundef 0)
  %39 = load ptr, ptr %8, align 8
  %40 = load i32, ptr @hf_mpeg_descr_ac3_reserved, align 4
  %41 = load ptr, ptr %5, align 8
  %42 = load i32, ptr %6, align 4
  %43 = call ptr @proto_tree_add_item(ptr noundef %39, i32 noundef %40, ptr noundef %41, i32 noundef %42, i32 noundef 1, i32 noundef 0)
  %44 = load i32, ptr %6, align 4
  %45 = add i32 %44, 1
  store i32 %45, ptr %6, align 4
  %46 = load i8, ptr %10, align 1
  %47 = zext i8 %46 to i32
  %48 = and i32 %47, 128
  %49 = icmp ne i32 %48, 0
  br i1 %49, label %50, label %83

50:                                               ; preds = %4
  %51 = load ptr, ptr %5, align 8
  %52 = load i32, ptr %6, align 4
  %53 = call zeroext i8 @tvb_get_uint8(ptr noundef %51, i32 noundef %52)
  store i8 %53, ptr %11, align 1
  %54 = load ptr, ptr %8, align 8
  %55 = load ptr, ptr %5, align 8
  %56 = load i32, ptr %6, align 4
  %57 = load i32, ptr @ett_mpeg_descriptor_ac3_component_type, align 4
  %58 = load i8, ptr %11, align 1
  %59 = zext i8 %58 to i32
  %60 = call ptr (ptr, ptr, i32, i32, i32, ptr, ptr, ...) @proto_tree_add_subtree_format(ptr noundef %54, ptr noundef %55, i32 noundef %56, i32 noundef 3, i32 noundef %57, ptr noundef null, ptr noundef @.str.764, i32 noundef %59)
  store ptr %60, ptr %12, align 8
  %61 = load ptr, ptr %12, align 8
  %62 = load i32, ptr @hf_mpeg_descr_ac3_component_type_reserved_flag, align 4
  %63 = load ptr, ptr %5, align 8
  %64 = load i32, ptr %6, align 4
  %65 = call ptr @proto_tree_add_item(ptr noundef %61, i32 noundef %62, ptr noundef %63, i32 noundef %64, i32 noundef 1, i32 noundef 0)
  %66 = load ptr, ptr %12, align 8
  %67 = load i32, ptr @hf_mpeg_descr_ac3_component_type_full_service_flag, align 4
  %68 = load ptr, ptr %5, align 8
  %69 = load i32, ptr %6, align 4
  %70 = call ptr @proto_tree_add_item(ptr noundef %66, i32 noundef %67, ptr noundef %68, i32 noundef %69, i32 noundef 1, i32 noundef 0)
  %71 = load ptr, ptr %12, align 8
  %72 = load i32, ptr @hf_mpeg_descr_ac3_component_type_service_type_flags, align 4
  %73 = load ptr, ptr %5, align 8
  %74 = load i32, ptr %6, align 4
  %75 = call ptr @proto_tree_add_item(ptr noundef %71, i32 noundef %72, ptr noundef %73, i32 noundef %74, i32 noundef 1, i32 noundef 0)
  %76 = load ptr, ptr %12, align 8
  %77 = load i32, ptr @hf_mpeg_descr_ac3_component_type_number_of_channels_flags, align 4
  %78 = load ptr, ptr %5, align 8
  %79 = load i32, ptr %6, align 4
  %80 = call ptr @proto_tree_add_item(ptr noundef %76, i32 noundef %77, ptr noundef %78, i32 noundef %79, i32 noundef 1, i32 noundef 0)
  %81 = load i32, ptr %6, align 4
  %82 = add i32 %81, 1
  store i32 %82, ptr %6, align 4
  br label %83

83:                                               ; preds = %50, %4
  %84 = load i8, ptr %10, align 1
  %85 = zext i8 %84 to i32
  %86 = and i32 %85, 64
  %87 = icmp ne i32 %86, 0
  br i1 %87, label %88, label %96

88:                                               ; preds = %83
  %89 = load ptr, ptr %8, align 8
  %90 = load i32, ptr @hf_mpeg_descr_ac3_bsid, align 4
  %91 = load ptr, ptr %5, align 8
  %92 = load i32, ptr %6, align 4
  %93 = call ptr @proto_tree_add_item(ptr noundef %89, i32 noundef %90, ptr noundef %91, i32 noundef %92, i32 noundef 1, i32 noundef 0)
  %94 = load i32, ptr %6, align 4
  %95 = add i32 %94, 1
  store i32 %95, ptr %6, align 4
  br label %96

96:                                               ; preds = %88, %83
  %97 = load i8, ptr %10, align 1
  %98 = zext i8 %97 to i32
  %99 = and i32 %98, 32
  %100 = icmp ne i32 %99, 0
  br i1 %100, label %101, label %109

101:                                              ; preds = %96
  %102 = load ptr, ptr %8, align 8
  %103 = load i32, ptr @hf_mpeg_descr_ac3_mainid, align 4
  %104 = load ptr, ptr %5, align 8
  %105 = load i32, ptr %6, align 4
  %106 = call ptr @proto_tree_add_item(ptr noundef %102, i32 noundef %103, ptr noundef %104, i32 noundef %105, i32 noundef 1, i32 noundef 0)
  %107 = load i32, ptr %6, align 4
  %108 = add i32 %107, 1
  store i32 %108, ptr %6, align 4
  br label %109

109:                                              ; preds = %101, %96
  %110 = load i8, ptr %10, align 1
  %111 = zext i8 %110 to i32
  %112 = and i32 %111, 16
  %113 = icmp ne i32 %112, 0
  br i1 %113, label %114, label %122

114:                                              ; preds = %109
  %115 = load ptr, ptr %8, align 8
  %116 = load i32, ptr @hf_mpeg_descr_ac3_asvc, align 4
  %117 = load ptr, ptr %5, align 8
  %118 = load i32, ptr %6, align 4
  %119 = call ptr @proto_tree_add_item(ptr noundef %115, i32 noundef %116, ptr noundef %117, i32 noundef %118, i32 noundef 1, i32 noundef 0)
  %120 = load i32, ptr %6, align 4
  %121 = add i32 %120, 1
  store i32 %121, ptr %6, align 4
  br label %122

122:                                              ; preds = %114, %109
  %123 = load i32, ptr %6, align 4
  %124 = load i32, ptr %9, align 4
  %125 = icmp ult i32 %123, %124
  br i1 %125, label %126, label %135

126:                                              ; preds = %122
  %127 = load ptr, ptr %8, align 8
  %128 = load i32, ptr @hf_mpeg_descr_ac3_additional_info, align 4
  %129 = load ptr, ptr %5, align 8
  %130 = load i32, ptr %6, align 4
  %131 = load i32, ptr %9, align 4
  %132 = load i32, ptr %6, align 4
  %133 = sub i32 %131, %132
  %134 = call ptr @proto_tree_add_item(ptr noundef %127, i32 noundef %128, ptr noundef %129, i32 noundef %130, i32 noundef %133, i32 noundef 0)
  br label %135

135:                                              ; preds = %126, %122
  call void @llvm.lifetime.end.p0(i64 8, ptr %12) #4
  call void @llvm.lifetime.end.p0(i64 1, ptr %11) #4
  call void @llvm.lifetime.end.p0(i64 1, ptr %10) #4
  call void @llvm.lifetime.end.p0(i64 4, ptr %9) #4
  ret void
}