; Function Attrs: null_pointer_is_valid sspstrong uwtable
define internal fastcc void @proto_mpeg_descriptor_dissect_ac3(ptr noundef %0, i32 noundef %1, i32 noundef range(i32 1, 256) %2, ptr noundef %3) unnamed_addr #1 {
  %5 = add i32 %2, %1
  %6 = tail call zeroext i8 @tvb_get_uint8(ptr noundef %0, i32 noundef %1)
  %7 = load i32, ptr @hf_mpeg_descr_ac3_component_type_flag, align 4
  %8 = tail call ptr @proto_tree_add_item(ptr noundef %3, i32 noundef %7, ptr noundef %0, i32 noundef %1, i32 noundef 1, i32 noundef 0)
  %9 = load i32, ptr @hf_mpeg_descr_ac3_bsid_flag, align 4
  %10 = tail call ptr @proto_tree_add_item(ptr noundef %3, i32 noundef %9, ptr noundef %0, i32 noundef %1, i32 noundef 1, i32 noundef 0)
  %11 = load i32, ptr @hf_mpeg_descr_ac3_mainid_flag, align 4
  %12 = tail call ptr @proto_tree_add_item(ptr noundef %3, i32 noundef %11, ptr noundef %0, i32 noundef %1, i32 noundef 1, i32 noundef 0)
  %13 = load i32, ptr @hf_mpeg_descr_ac3_asvc_flag, align 4
  %14 = tail call ptr @proto_tree_add_item(ptr noundef %3, i32 noundef %13, ptr noundef %0, i32 noundef %1, i32 noundef 1, i32 noundef 0)
  %15 = load i32, ptr @hf_mpeg_descr_ac3_reserved, align 4
  %16 = tail call ptr @proto_tree_add_item(ptr noundef %3, i32 noundef %15, ptr noundef %0, i32 noundef %1, i32 noundef 1, i32 noundef 0)
  %17 = add i32 %1, 1
  %18 = zext i8 %6 to i32
  %.not = icmp sgt i8 %6, -1
  br i1 %.not, label %33, label %19

19:                                               ; preds = %4
  %20 = tail call zeroext i8 @tvb_get_uint8(ptr noundef %0, i32 noundef %17)
  %21 = load i32, ptr @ett_mpeg_descriptor_ac3_component_type, align 4
  %22 = zext i8 %20 to i32
  %23 = tail call ptr (ptr, ptr, i32, i32, i32, ptr, ptr, ...) @proto_tree_add_subtree_format(ptr noundef %3, ptr noundef %0, i32 noundef %17, i32 noundef 3, i32 noundef %21, ptr noundef null, ptr noundef nonnull @.str.764, i32 noundef %22)
  %24 = load i32, ptr @hf_mpeg_descr_ac3_component_type_reserved_flag, align 4
  %25 = tail call ptr @proto_tree_add_item(ptr noundef %23, i32 noundef %24, ptr noundef %0, i32 noundef %17, i32 noundef 1, i32 noundef 0)
  %26 = load i32, ptr @hf_mpeg_descr_ac3_component_type_full_service_flag, align 4
  %27 = tail call ptr @proto_tree_add_item(ptr noundef %23, i32 noundef %26, ptr noundef %0, i32 noundef %17, i32 noundef 1, i32 noundef 0)
  %28 = load i32, ptr @hf_mpeg_descr_ac3_component_type_service_type_flags, align 4
  %29 = tail call ptr @proto_tree_add_item(ptr noundef %23, i32 noundef %28, ptr noundef %0, i32 noundef %17, i32 noundef 1, i32 noundef 0)
  %30 = load i32, ptr @hf_mpeg_descr_ac3_component_type_number_of_channels_flags, align 4
  %31 = tail call ptr @proto_tree_add_item(ptr noundef %23, i32 noundef %30, ptr noundef %0, i32 noundef %17, i32 noundef 1, i32 noundef 0)
  %32 = add i32 %1, 2
  br label %33

33:                                               ; preds = %19, %4
  %.0 = phi i32 [ %32, %19 ], [ %17, %4 ]
  %34 = and i32 %18, 64
  %.not62 = icmp eq i32 %34, 0
  br i1 %.not62, label %39, label %35

35:                                               ; preds = %33
  %36 = load i32, ptr @hf_mpeg_descr_ac3_bsid, align 4
  %37 = tail call ptr @proto_tree_add_item(ptr noundef %3, i32 noundef %36, ptr noundef %0, i32 noundef %.0, i32 noundef 1, i32 noundef 0)
  %38 = add i32 %.0, 1
  br label %39

39:                                               ; preds = %35, %33
  %.1 = phi i32 [ %38, %35 ], [ %.0, %33 ]
  %40 = and i32 %18, 32
  %.not63 = icmp eq i32 %40, 0
  br i1 %.not63, label %45, label %41

41:                                               ; preds = %39
  %42 = load i32, ptr @hf_mpeg_descr_ac3_mainid, align 4
  %43 = tail call ptr @proto_tree_add_item(ptr noundef %3, i32 noundef %42, ptr noundef %0, i32 noundef %.1, i32 noundef 1, i32 noundef 0)
  %44 = add i32 %.1, 1
  br label %45

45:                                               ; preds = %41, %39
  %.2 = phi i32 [ %44, %41 ], [ %.1, %39 ]
  %46 = and i32 %18, 16
  %.not64 = icmp eq i32 %46, 0
  br i1 %.not64, label %51, label %47

47:                                               ; preds = %45
  %48 = load i32, ptr @hf_mpeg_descr_ac3_asvc, align 4
  %49 = tail call ptr @proto_tree_add_item(ptr noundef %3, i32 noundef %48, ptr noundef %0, i32 noundef %.2, i32 noundef 1, i32 noundef 0)
  %50 = add i32 %.2, 1
  br label %51

51:                                               ; preds = %47, %45
  %.3 = phi i32 [ %50, %47 ], [ %.2, %45 ]
  %52 = icmp ult i32 %.3, %5
  br i1 %52, label %53, label %57

53:                                               ; preds = %51
  %54 = load i32, ptr @hf_mpeg_descr_ac3_additional_info, align 4
  %55 = sub nuw i32 %5, %.3
  %56 = tail call ptr @proto_tree_add_item(ptr noundef %3, i32 noundef %54, ptr noundef %0, i32 noundef %.3, i32 noundef %55, i32 noundef 0)
  br label %57

57:                                               ; preds = %53, %51
  ret void
}